; Function Attrs: mustprogress uwtable
define noundef zeroext i1 @_ZNK6google8protobuf11MessageLite32SerializePartialToFileDescriptorEi(ptr noundef nonnull align 8 dereferenceable(16) %0, i32 noundef %1) local_unnamed_addr #3 align 2 personality ptr @__gxx_personality_v0 {
  %3 = alloca %"class.google::protobuf::io::FileOutputStream", align 8
  call void @_ZN6google8protobuf2io16FileOutputStreamC1Eii(ptr noundef nonnull align 8 dereferenceable(72) %3, i32 noundef %1, i32 noundef -1)
  %4 = invoke noundef zeroext i1 @_ZNK6google8protobuf11MessageLite32SerializePartialToZeroCopyStreamEPNS0_2io20ZeroCopyOutputStreamE(ptr noundef nonnull align 8 dereferenceable(16) %0, ptr noundef nonnull %3)
          to label %5 unwind label %10

5:                                                ; preds = %2
  br i1 %4, label %6, label %8

6:                                                ; preds = %5
  %7 = invoke noundef zeroext i1 @_ZN6google8protobuf2io26CopyingOutputStreamAdaptor5FlushEv(ptr noundef nonnull align 8 dereferenceable(48) %3)
          to label %8 unwind label %10

8:                                                ; preds = %6, %5
  %9 = phi i1 [ false, %5 ], [ %7, %6 ]
  call void @_ZN6google8protobuf2io16FileOutputStreamD1Ev(ptr noundef nonnull align 8 dereferenceable(72) %3) #15
  ret i1 %9

10:                                               ; preds = %6, %2
  %11 = landingpad { ptr, i32 }
          cleanup
  call void @_ZN6google8protobuf2io16FileOutputStreamD1Ev(ptr noundef nonnull align 8 dereferenceable(72) %3) #15
  resume { ptr, i32 } %11
}